target datalayout = "e-m:e-p270:32:32-p271:32:32-p272:64:64-i64:64-i128:128-f80:128-n8:16:32:64-S128"
target triple = "x86_64-pc-linux-gnu"

%struct.uv__io_s = type { ptr, [2 x ptr], [2 x ptr], i32, i32, i32 }
%struct.uv_stream_s = type { ptr, ptr, i32, ptr, [2 x ptr], %union.anon, ptr, i32, i64, ptr, ptr, ptr, ptr, %struct.uv__io_s, [2 x ptr], [2 x ptr], ptr, i32, i32, ptr }
%union.anon = type { [4 x ptr] }
%struct.uv_buf_t = type { ptr, i64 }
%struct.uv_write_s = type { ptr, i32, [6 x ptr], ptr, ptr, ptr, [2 x ptr], i32, ptr, i32, i32, [4 x %struct.uv_buf_t] }

; Function Attrs: nounwind uwtable
define dso_local void @uv__stream_flush_write_queue(ptr noundef %0, i32 noundef %1) #0 {
  %3 = alloca ptr, align 8
  %4 = alloca i32, align 4
  %5 = alloca ptr, align 8
  %6 = alloca ptr, align 8
  store ptr %0, ptr %3, align 8
  store i32 %1, ptr %4, align 4
  br label %7

7:                                                ; preds = %67, %2
  %8 = load ptr, ptr %3, align 8
  %9 = getelementptr inbounds %struct.uv_stream_s, ptr %8, i32 0, i32 14
  %10 = load ptr, ptr %3, align 8
  %11 = getelementptr inbounds %struct.uv_stream_s, ptr %10, i32 0, i32 14
  %12 = getelementptr inbounds [2 x ptr], ptr %11, i64 0, i64 0
  %13 = load ptr, ptr %12, align 8
  %14 = icmp eq ptr %9, %13
  %15 = xor i1 %14, true
  br i1 %15, label %16, label %68

16:                                               ; preds = %7
  %17 = load ptr, ptr %3, align 8
  %18 = getelementptr inbounds %struct.uv_stream_s, ptr %17, i32 0, i32 14
  %19 = getelementptr inbounds [2 x ptr], ptr %18, i64 0, i64 0
  %20 = load ptr, ptr %19, align 8
  store ptr %20, ptr %6, align 8
  br label %21

21:                                               ; preds = %16
  %22 = load ptr, ptr %6, align 8
  %23 = getelementptr inbounds [2 x ptr], ptr %22, i64 0, i64 0
  %24 = load ptr, ptr %23, align 8
  %25 = load ptr, ptr %6, align 8
  %26 = getelementptr inbounds [2 x ptr], ptr %25, i64 0, i64 1
  %27 = load ptr, ptr %26, align 8
  %28 = getelementptr inbounds [2 x ptr], ptr %27, i64 0, i64 0
  store ptr %24, ptr %28, align 8
  %29 = load ptr, ptr %6, align 8
  %30 = getelementptr inbounds [2 x ptr], ptr %29, i64 0, i64 1
  %31 = load ptr, ptr %30, align 8
  %32 = load ptr, ptr %6, align 8
  %33 = getelementptr inbounds [2 x ptr], ptr %32, i64 0, i64 0
  %34 = load ptr, ptr %33, align 8
  %35 = getelementptr inbounds [2 x ptr], ptr %34, i64 0, i64 1
  store ptr %31, ptr %35, align 8
  br label %36

36:                                               ; preds = %21
  %37 = load ptr, ptr %6, align 8
  %38 = getelementptr inbounds i8, ptr %37, i64 -88
  store ptr %38, ptr %5, align 8
  %39 = load i32, ptr %4, align 4
  %40 = load ptr, ptr %5, align 8
  %41 = getelementptr inbounds %struct.uv_write_s, ptr %40, i32 0, i32 10
  store i32 %39, ptr %41, align 4
  br label %42

42:                                               ; preds = %36
  %43 = load ptr, ptr %3, align 8
  %44 = getelementptr inbounds %struct.uv_stream_s, ptr %43, i32 0, i32 15
  %45 = load ptr, ptr %5, align 8
  %46 = getelementptr inbounds %struct.uv_write_s, ptr %45, i32 0, i32 6
  %47 = getelementptr inbounds [2 x ptr], ptr %46, i64 0, i64 0
  store ptr %44, ptr %47, align 8
  %48 = load ptr, ptr %3, align 8
  %49 = getelementptr inbounds %struct.uv_stream_s, ptr %48, i32 0, i32 15
  %50 = getelementptr inbounds [2 x ptr], ptr %49, i64 0, i64 1
  %51 = load ptr, ptr %50, align 8
  %52 = load ptr, ptr %5, align 8
  %53 = getelementptr inbounds %struct.uv_write_s, ptr %52, i32 0, i32 6
  %54 = getelementptr inbounds [2 x ptr], ptr %53, i64 0, i64 1
  store ptr %51, ptr %54, align 8
  %55 = load ptr, ptr %5, align 8
  %56 = getelementptr inbounds %struct.uv_write_s, ptr %55, i32 0, i32 6
  %57 = load ptr, ptr %5, align 8
  %58 = getelementptr inbounds %struct.uv_write_s, ptr %57, i32 0, i32 6
  %59 = getelementptr inbounds [2 x ptr], ptr %58, i64 0, i64 1
  %60 = load ptr, ptr %59, align 8
  %61 = getelementptr inbounds [2 x ptr], ptr %60, i64 0, i64 0
  store ptr %56, ptr %61, align 8
  %62 = load ptr, ptr %5, align 8
  %63 = getelementptr inbounds %struct.uv_write_s, ptr %62, i32 0, i32 6
  %64 = load ptr, ptr %3, align 8
  %65 = getelementptr inbounds %struct.uv_stream_s, ptr %64, i32 0, i32 15
  %66 = getelementptr inbounds [2 x ptr], ptr %65, i64 0, i64 1
  store ptr %63, ptr %66, align 8
  br label %67

67:                                               ; preds = %42
  br label %7, !llvm.loop !5

68:                                               ; preds = %7
  ret void
}